; Function Attrs: nounwind uwtable
define ptr @l___private_Lean_Elab_Tactic_Try_0__Lean_Elab_Tactic_Try_getTacsSolvedAll(ptr noundef %0) local_unnamed_addr #0 {
  %2 = tail call zeroext i8 @l_Array_isEmpty___rarg(ptr noundef %0) #5
  %3 = icmp eq i8 %2, 0
  br i1 %3, label %4, label %39

4:                                                ; preds = %1
  %5 = load ptr, ptr @l___private_Lean_Elab_Tactic_Try_0__Lean_Elab_Tactic_Try_mkTrySuggestions___closed__2, align 8, !tbaa !4
  %6 = getelementptr i8, ptr %0, i64 8
  %.val.i = load i64, ptr %6, align 8, !tbaa !13
  %.not20 = icmp eq i64 %.val.i, 0
  br i1 %.not20, label %lean_array_uget.exit.i, label %7

7:                                                ; preds = %4
  %8 = ptrtoint ptr %5 to i64
  %9 = and i64 %8, 1
  %.not14.i = icmp eq i64 %9, 0
  br i1 %.not14.i, label %10, label %lean_dec.exit.i

10:                                               ; preds = %7
  %11 = load i32, ptr %5, align 4, !tbaa !8
  %12 = icmp sgt i32 %11, 1
  br i1 %12, label %13, label %15, !prof !11

13:                                               ; preds = %10
  %14 = add nsw i32 %11, -1
  store i32 %14, ptr %5, align 4, !tbaa !8
  br label %lean_dec.exit.i

15:                                               ; preds = %10
  %.not.i.i = icmp eq i32 %11, 0
  br i1 %.not.i.i, label %lean_dec.exit.i, label %16

16:                                               ; preds = %15
  tail call void @lean_dec_ref_cold(ptr noundef nonnull %5) #5
  br label %lean_dec.exit.i

lean_dec.exit.i:                                  ; preds = %16, %15, %13, %7
  %17 = getelementptr inbounds nuw i8, ptr %0, i64 24
  %18 = load ptr, ptr %17, align 8, !tbaa !4
  %19 = ptrtoint ptr %18 to i64
  %20 = and i64 %19, 1
  %.not.i11.i = icmp eq i64 %20, 0
  br i1 %.not.i11.i, label %21, label %lean_array_get.exit

21:                                               ; preds = %lean_dec.exit.i
  %.val.i.i.i = load i32, ptr %18, align 4, !tbaa !8
  %22 = icmp sgt i32 %.val.i.i.i, 0
  br i1 %22, label %23, label %25, !prof !11

23:                                               ; preds = %21
  %24 = add nuw i32 %.val.i.i.i, 1
  store i32 %24, ptr %18, align 4, !tbaa !8
  br label %lean_array_get.exit

25:                                               ; preds = %21
  %.not.i.i.i = icmp eq i32 %.val.i.i.i, 0
  br i1 %.not.i.i.i, label %lean_array_get.exit, label %26

26:                                               ; preds = %25
  tail call void @lean_inc_ref_cold(ptr noundef nonnull %18) #5
  br label %lean_array_get.exit

lean_array_uget.exit.i:                           ; preds = %4
  %27 = tail call ptr @lean_array_get_panic(ptr noundef %5) #5
  %.pre = ptrtoint ptr %27 to i64
  br label %lean_array_get.exit

lean_array_get.exit:                              ; preds = %lean_dec.exit.i, %23, %25, %26, %lean_array_uget.exit.i
  %.pre-phi = phi i64 [ %19, %lean_dec.exit.i ], [ %19, %23 ], [ %19, %25 ], [ %19, %26 ], [ %.pre, %lean_array_uget.exit.i ]
  %.1.i = phi ptr [ %18, %lean_dec.exit.i ], [ %18, %23 ], [ %18, %25 ], [ %18, %26 ], [ %27, %lean_array_uget.exit.i ]
  %28 = getelementptr i8, ptr %.1.i, i64 8
  %.val = load i64, ptr %28, align 8, !tbaa !13
  %29 = load ptr, ptr @l___private_Lean_Elab_Tactic_Try_0__Lean_Elab_Tactic_Try_isExprAccessible___closed__4, align 8, !tbaa !4
  %30 = tail call ptr @l_Array_forIn_x27Unsafe_loop___at___private_Lean_Elab_Tactic_Try_0__Lean_Elab_Tactic_Try_getTacsSolvedAll___spec__3(ptr noundef nonnull %0, ptr nonnull poison, ptr poison, ptr noundef %.1.i, i64 noundef %.val, i64 noundef 0, ptr noundef %29)
  %31 = and i64 %.pre-phi, 1
  %.not21 = icmp eq i64 %31, 0
  br i1 %.not21, label %32, label %lean_dec.exit17

32:                                               ; preds = %lean_array_get.exit
  %33 = load i32, ptr %.1.i, align 4, !tbaa !8
  %34 = icmp sgt i32 %33, 1
  br i1 %34, label %35, label %37, !prof !11

35:                                               ; preds = %32
  %36 = add nsw i32 %33, -1
  store i32 %36, ptr %.1.i, align 4, !tbaa !8
  br label %lean_dec.exit17

37:                                               ; preds = %32
  %.not.i = icmp eq i32 %33, 0
  br i1 %.not.i, label %lean_dec.exit17, label %38

38:                                               ; preds = %37
  tail call void @lean_dec_ref_cold(ptr noundef nonnull %.1.i) #5
  br label %lean_dec.exit17

39:                                               ; preds = %1
  %40 = ptrtoint ptr %0 to i64
  %41 = and i64 %40, 1
  %.not = icmp eq i64 %41, 0
  br i1 %.not, label %42, label %lean_dec.exit

42:                                               ; preds = %39
  %43 = load i32, ptr %0, align 4, !tbaa !8
  %44 = icmp sgt i32 %43, 1
  br i1 %44, label %45, label %47, !prof !11

45:                                               ; preds = %42
  %46 = add nsw i32 %43, -1
  store i32 %46, ptr %0, align 4, !tbaa !8
  br label %lean_dec.exit

47:                                               ; preds = %42
  %.not.i18 = icmp eq i32 %43, 0
  br i1 %.not.i18, label %lean_dec.exit, label %48

48:                                               ; preds = %47
  tail call void @lean_dec_ref_cold(ptr noundef nonnull %0) #5
  br label %lean_dec.exit

lean_dec.exit:                                    ; preds = %48, %47, %45, %39
  %49 = load ptr, ptr @l___private_Lean_Elab_Tactic_Try_0__Lean_Elab_Tactic_Try_isExprAccessible___closed__4, align 8, !tbaa !4
  br label %lean_dec.exit17

lean_dec.exit17:                                  ; preds = %lean_array_get.exit, %35, %37, %38, %lean_dec.exit
  %.0 = phi ptr [ %49, %lean_dec.exit ], [ %30, %38 ], [ %30, %37 ], [ %30, %35 ], [ %30, %lean_array_get.exit ]
  ret ptr %.0
}